target datalayout = "e-m:e-p270:32:32-p271:32:32-p272:64:64-i64:64-i128:128-f80:128-n8:16:32:64-S128"
target triple = "x86_64-pc-linux-gnu"

%struct.FunctionCallInfoBaseData = type { ptr, ptr, ptr, i32, i8, i16, [0 x %struct.NullableDatum] }
%struct.NullableDatum = type { i64, i8 }

@replorigin_session_origin = dso_local global i16 0, align 2

; Function Attrs: inlinehint nounwind uwtable
define internal ptr @DatumGetPointer(i64 noundef %0) #2 {
  %2 = alloca i64, align 8
  store i64 %0, ptr %2, align 8
  %3 = load i64, ptr %2, align 8
  %4 = inttoptr i64 %3 to ptr
  ret ptr %4
}

; Function Attrs: nounwind uwtable
define dso_local i64 @pg_replication_origin_session_setup(ptr noundef %0) #0 {
  %2 = alloca ptr, align 8
  %3 = alloca ptr, align 8
  %4 = alloca i16, align 2
  store ptr %0, ptr %2, align 8
  call void @llvm.lifetime.start.p0(i64 8, ptr %3) #9
  call void @llvm.lifetime.start.p0(i64 2, ptr %4) #9
  call void @replorigin_check_prerequisites(i1 noundef zeroext true, i1 noundef zeroext false)
  %5 = load ptr, ptr %2, align 8
  %6 = getelementptr inbounds nuw %struct.FunctionCallInfoBaseData, ptr %5, i32 0, i32 6
  %7 = getelementptr inbounds [0 x %struct.NullableDatum], ptr %6, i64 0, i64 0
  %8 = getelementptr inbounds nuw %struct.NullableDatum, ptr %7, i32 0, i32 0
  %9 = load i64, ptr %8, align 8
  %10 = call ptr @DatumGetPointer(i64 noundef %9)
  %11 = call ptr @text_to_cstring(ptr noundef %10)
  store ptr %11, ptr %3, align 8
  %12 = load ptr, ptr %3, align 8
  %13 = call zeroext i16 @replorigin_by_name(ptr noundef %12, i1 noundef zeroext false)
  store i16 %13, ptr %4, align 2
  %14 = load i16, ptr %4, align 2
  call void @replorigin_session_setup(i16 noundef zeroext %14, i32 noundef 0)
  %15 = load i16, ptr %4, align 2
  store i16 %15, ptr @replorigin_session_origin, align 2
  %16 = load ptr, ptr %3, align 8
  call void @pfree(ptr noundef %16)
  call void @llvm.lifetime.end.p0(i64 2, ptr %4) #9
  call void @llvm.lifetime.end.p0(i64 8, ptr %3) #9
  ret i64 0
}