; Function Attrs: nounwind uwtable
define dso_local noundef i64 @pg_replication_origin_session_setup(ptr noundef readonly captures(none) %0) local_unnamed_addr #0 {
  tail call fastcc void @replorigin_check_prerequisites(i1 noundef zeroext true, i1 noundef zeroext false)
  %2 = getelementptr inbounds nuw i8, ptr %0, i64 32
  %3 = load i64, ptr %2, align 8
  %4 = inttoptr i64 %3 to ptr
  %5 = tail call ptr @text_to_cstring(ptr noundef %4) #10
  %6 = tail call zeroext i16 @replorigin_by_name(ptr noundef %5, i1 noundef zeroext false)
  tail call void @replorigin_session_setup(i16 noundef zeroext %6, i32 noundef 0)
  store i16 %6, ptr @replorigin_session_origin, align 2
  tail call void @pfree(ptr noundef %5) #10
  ret i64 0
}